target datalayout = "e-m:e-p270:32:32-p271:32:32-p272:64:64-i64:64-i128:128-f80:128-n8:16:32:64-S128"
target triple = "x86_64-pc-linux-gnu"

%struct._gradient_slider_stop_t = type { double, %struct._GdkRGBA }
%struct._GdkRGBA = type { double, double, double, double }
%struct._GtkDarktableGradientSlider = type { %struct._GtkDrawingArea, ptr, i32, i32, i32, [10 x double], [10 x double], [10 x i32], double, double, [3 x double], i32, i32, i32, i32, i32, i32, i32, i32, i32, ptr }
%struct._GtkDrawingArea = type { %struct._GtkWidget, ptr }
%struct._GtkWidget = type { %struct._GObject, ptr }
%struct._GObject = type { %struct._GTypeInstance, i32, ptr }
%struct._GTypeInstance = type { ptr }
%struct._GList = type { ptr, ptr, ptr }

; Function Attrs: nounwind uwtable
define void @dtgtk_gradient_slider_multivalue_set_scale_callback(ptr noundef %0, ptr noundef %1) #0 {
  %3 = alloca ptr, align 8
  %4 = alloca ptr, align 8
  %5 = alloca ptr, align 8
  %6 = alloca ptr, align 8
  %7 = alloca ptr, align 8
  %8 = alloca i32, align 4
  %9 = alloca i32, align 4
  %10 = alloca i32, align 4
  %11 = alloca ptr, align 8
  %12 = alloca ptr, align 8
  store ptr %0, ptr %3, align 8, !tbaa !24
  store ptr %1, ptr %4, align 8, !tbaa !15
  call void @llvm.lifetime.start.p0(i64 8, ptr %5) #11
  %13 = load ptr, ptr %3, align 8, !tbaa !24
  %14 = getelementptr inbounds nuw %struct._GtkDarktableGradientSlider, ptr %13, i32 0, i32 20
  %15 = load ptr, ptr %14, align 8, !tbaa !43
  store ptr %15, ptr %5, align 8, !tbaa !15
  call void @llvm.lifetime.start.p0(i64 8, ptr %6) #11
  %16 = load ptr, ptr %4, align 8, !tbaa !15
  %17 = icmp eq ptr %16, null
  br i1 %17, label %18, label %19

18:                                               ; preds = %2
  br label %21

19:                                               ; preds = %2
  %20 = load ptr, ptr %4, align 8, !tbaa !15
  br label %21

21:                                               ; preds = %19, %18
  %22 = phi ptr [ @_default_linear_scale_callback, %18 ], [ %20, %19 ]
  store ptr %22, ptr %6, align 8, !tbaa !15
  call void @llvm.lifetime.start.p0(i64 8, ptr %7) #11
  %23 = load ptr, ptr %3, align 8, !tbaa !24
  store ptr %23, ptr %7, align 8, !tbaa !54
  %24 = load ptr, ptr %5, align 8, !tbaa !15
  %25 = load ptr, ptr %6, align 8, !tbaa !15
  %26 = icmp eq ptr %24, %25
  br i1 %26, label %27, label %28

27:                                               ; preds = %21
  store i32 1, ptr %8, align 4
  br label %148

28:                                               ; preds = %21
  call void @llvm.lifetime.start.p0(i64 4, ptr %9) #11
  store i32 0, ptr %9, align 4, !tbaa !13
  br label %29

29:                                               ; preds = %75, %28
  %30 = load i32, ptr %9, align 4, !tbaa !13
  %31 = load ptr, ptr %3, align 8, !tbaa !24
  %32 = getelementptr inbounds nuw %struct._GtkDarktableGradientSlider, ptr %31, i32 0, i32 4
  %33 = load i32, ptr %32, align 8, !tbaa !26
  %34 = icmp slt i32 %30, %33
  br i1 %34, label %36, label %35

35:                                               ; preds = %29
  store i32 2, ptr %8, align 4
  call void @llvm.lifetime.end.p0(i64 4, ptr %9) #11
  br label %78

36:                                               ; preds = %29
  %37 = load ptr, ptr %6, align 8, !tbaa !15
  %38 = load ptr, ptr %7, align 8, !tbaa !54
  %39 = load ptr, ptr %5, align 8, !tbaa !15
  %40 = load ptr, ptr %7, align 8, !tbaa !54
  %41 = load ptr, ptr %3, align 8, !tbaa !24
  %42 = getelementptr inbounds nuw %struct._GtkDarktableGradientSlider, ptr %41, i32 0, i32 5
  %43 = load i32, ptr %9, align 4, !tbaa !13
  %44 = sext i32 %43 to i64
  %45 = getelementptr inbounds [10 x double], ptr %42, i64 0, i64 %44
  %46 = load double, ptr %45, align 8, !tbaa !45
  %47 = fptrunc reassoc nsz arcp contract afn double %46 to float
  %48 = call reassoc nsz arcp contract afn float %39(ptr noundef %40, float noundef %47, i32 noundef 2)
  %49 = call reassoc nsz arcp contract afn float %37(ptr noundef %38, float noundef %48, i32 noundef 1)
  %50 = fpext reassoc nsz arcp contract afn float %49 to double
  %51 = load ptr, ptr %3, align 8, !tbaa !24
  %52 = getelementptr inbounds nuw %struct._GtkDarktableGradientSlider, ptr %51, i32 0, i32 5
  %53 = load i32, ptr %9, align 4, !tbaa !13
  %54 = sext i32 %53 to i64
  %55 = getelementptr inbounds [10 x double], ptr %52, i64 0, i64 %54
  store double %50, ptr %55, align 8, !tbaa !45
  %56 = load ptr, ptr %6, align 8, !tbaa !15
  %57 = load ptr, ptr %7, align 8, !tbaa !54
  %58 = load ptr, ptr %5, align 8, !tbaa !15
  %59 = load ptr, ptr %7, align 8, !tbaa !54
  %60 = load ptr, ptr %3, align 8, !tbaa !24
  %61 = getelementptr inbounds nuw %struct._GtkDarktableGradientSlider, ptr %60, i32 0, i32 6
  %62 = load i32, ptr %9, align 4, !tbaa !13
  %63 = sext i32 %62 to i64
  %64 = getelementptr inbounds [10 x double], ptr %61, i64 0, i64 %63
  %65 = load double, ptr %64, align 8, !tbaa !45
  %66 = fptrunc reassoc nsz arcp contract afn double %65 to float
  %67 = call reassoc nsz arcp contract afn float %58(ptr noundef %59, float noundef %66, i32 noundef 2)
  %68 = call reassoc nsz arcp contract afn float %56(ptr noundef %57, float noundef %67, i32 noundef 1)
  %69 = fpext reassoc nsz arcp contract afn float %68 to double
  %70 = load ptr, ptr %3, align 8, !tbaa !24
  %71 = getelementptr inbounds nuw %struct._GtkDarktableGradientSlider, ptr %70, i32 0, i32 6
  %72 = load i32, ptr %9, align 4, !tbaa !13
  %73 = sext i32 %72 to i64
  %74 = getelementptr inbounds [10 x double], ptr %71, i64 0, i64 %73
  store double %69, ptr %74, align 8, !tbaa !45
  br label %75

75:                                               ; preds = %36
  %76 = load i32, ptr %9, align 4, !tbaa !13
  %77 = add nsw i32 %76, 1
  store i32 %77, ptr %9, align 4, !tbaa !13
  br label %29

78:                                               ; preds = %35
  call void @llvm.lifetime.start.p0(i64 4, ptr %10) #11
  store i32 0, ptr %10, align 4, !tbaa !13
  br label %79

79:                                               ; preds = %103, %78
  %80 = load i32, ptr %10, align 4, !tbaa !13
  %81 = icmp slt i32 %80, 3
  br i1 %81, label %83, label %82

82:                                               ; preds = %79
  store i32 5, ptr %8, align 4
  call void @llvm.lifetime.end.p0(i64 4, ptr %10) #11
  br label %106

83:                                               ; preds = %79
  %84 = load ptr, ptr %6, align 8, !tbaa !15
  %85 = load ptr, ptr %7, align 8, !tbaa !54
  %86 = load ptr, ptr %5, align 8, !tbaa !15
  %87 = load ptr, ptr %7, align 8, !tbaa !54
  %88 = load ptr, ptr %3, align 8, !tbaa !24
  %89 = getelementptr inbounds nuw %struct._GtkDarktableGradientSlider, ptr %88, i32 0, i32 10
  %90 = load i32, ptr %10, align 4, !tbaa !13
  %91 = sext i32 %90 to i64
  %92 = getelementptr inbounds [3 x double], ptr %89, i64 0, i64 %91
  %93 = load double, ptr %92, align 8, !tbaa !45
  %94 = fptrunc reassoc nsz arcp contract afn double %93 to float
  %95 = call reassoc nsz arcp contract afn float %86(ptr noundef %87, float noundef %94, i32 noundef 2)
  %96 = call reassoc nsz arcp contract afn float %84(ptr noundef %85, float noundef %95, i32 noundef 1)
  %97 = fpext reassoc nsz arcp contract afn float %96 to double
  %98 = load ptr, ptr %3, align 8, !tbaa !24
  %99 = getelementptr inbounds nuw %struct._GtkDarktableGradientSlider, ptr %98, i32 0, i32 10
  %100 = load i32, ptr %10, align 4, !tbaa !13
  %101 = sext i32 %100 to i64
  %102 = getelementptr inbounds [3 x double], ptr %99, i64 0, i64 %101
  store double %97, ptr %102, align 8, !tbaa !45
  br label %103

103:                                              ; preds = %83
  %104 = load i32, ptr %10, align 4, !tbaa !13
  %105 = add nsw i32 %104, 1
  store i32 %105, ptr %10, align 4, !tbaa !13
  br label %79

106:                                              ; preds = %82
  call void @llvm.lifetime.start.p0(i64 8, ptr %11) #11
  %107 = load ptr, ptr %3, align 8, !tbaa !24
  %108 = getelementptr inbounds nuw %struct._GtkDarktableGradientSlider, ptr %107, i32 0, i32 1
  %109 = load ptr, ptr %108, align 8, !tbaa !50
  store ptr %109, ptr %11, align 8, !tbaa !56
  br label %110

110:                                              ; preds = %139, %106
  %111 = load ptr, ptr %11, align 8, !tbaa !56
  %112 = icmp ne ptr %111, null
  br i1 %112, label %114, label %113

113:                                              ; preds = %110
  store i32 8, ptr %8, align 4
  call void @llvm.lifetime.end.p0(i64 8, ptr %11) #11
  br label %141

114:                                              ; preds = %110
  call void @llvm.lifetime.start.p0(i64 8, ptr %12) #11
  %115 = load ptr, ptr %11, align 8, !tbaa !56
  %116 = getelementptr inbounds nuw %struct._GList, ptr %115, i32 0, i32 0
  %117 = load ptr, ptr %116, align 8, !tbaa !57
  store ptr %117, ptr %12, align 8, !tbaa !16
  %118 = load ptr, ptr %6, align 8, !tbaa !15
  %119 = load ptr, ptr %7, align 8, !tbaa !54
  %120 = load ptr, ptr %5, align 8, !tbaa !15
  %121 = load ptr, ptr %7, align 8, !tbaa !54
  %122 = load ptr, ptr %12, align 8, !tbaa !16
  %123 = getelementptr inbounds nuw %struct._gradient_slider_stop_t, ptr %122, i32 0, i32 0
  %124 = load double, ptr %123, align 8, !tbaa !20
  %125 = fptrunc reassoc nsz arcp contract afn double %124 to float
  %126 = call reassoc nsz arcp contract afn float %120(ptr noundef %121, float noundef %125, i32 noundef 2)
  %127 = call reassoc nsz arcp contract afn float %118(ptr noundef %119, float noundef %126, i32 noundef 1)
  %128 = fpext reassoc nsz arcp contract afn float %127 to double
  %129 = load ptr, ptr %12, align 8, !tbaa !16
  %130 = getelementptr inbounds nuw %struct._gradient_slider_stop_t, ptr %129, i32 0, i32 0
  store double %128, ptr %130, align 8, !tbaa !20
  call void @llvm.lifetime.end.p0(i64 8, ptr %12) #11
  br label %131

131:                                              ; preds = %114
  %132 = load ptr, ptr %11, align 8, !tbaa !56
  %133 = icmp ne ptr %132, null
  br i1 %133, label %134, label %138

134:                                              ; preds = %131
  %135 = load ptr, ptr %11, align 8, !tbaa !56
  %136 = getelementptr inbounds nuw %struct._GList, ptr %135, i32 0, i32 1
  %137 = load ptr, ptr %136, align 8, !tbaa !101
  br label %139

138:                                              ; preds = %131
  br label %139

139:                                              ; preds = %138, %134
  %140 = phi ptr [ %137, %134 ], [ null, %138 ]
  store ptr %140, ptr %11, align 8, !tbaa !56
  br label %110

141:                                              ; preds = %113
  %142 = load ptr, ptr %6, align 8, !tbaa !15
  %143 = load ptr, ptr %3, align 8, !tbaa !24
  %144 = getelementptr inbounds nuw %struct._GtkDarktableGradientSlider, ptr %143, i32 0, i32 20
  store ptr %142, ptr %144, align 8, !tbaa !43
  %145 = load ptr, ptr %3, align 8, !tbaa !24
  %146 = call i64 @gtk_widget_get_type() #12
  %147 = call ptr @g_type_check_instance_cast(ptr noundef %145, i64 noundef %146)
  call void @gtk_widget_queue_draw(ptr noundef %147)
  store i32 0, ptr %8, align 4
  br label %148

148:                                              ; preds = %141, %27
  call void @llvm.lifetime.end.p0(i64 8, ptr %7) #11
  call void @llvm.lifetime.end.p0(i64 8, ptr %6) #11
  call void @llvm.lifetime.end.p0(i64 8, ptr %5) #11
  %149 = load i32, ptr %8, align 4
  switch i32 %149, label %151 [
    i32 0, label %150
    i32 1, label %150
  ]

150:                                              ; preds = %148, %148
  ret void

151:                                              ; preds = %148
  unreachable
}