; Function Attrs: nounwind uwtable
define void @dtgtk_gradient_slider_multivalue_set_scale_callback(ptr noundef %0, ptr noundef %1) local_unnamed_addr #0 {
  %3 = getelementptr inbounds nuw i8, ptr %0, i64 344
  %4 = load ptr, ptr %3, align 8, !tbaa !34
  %5 = icmp eq ptr %1, null
  %6 = select i1 %5, ptr @_default_linear_scale_callback, ptr %1
  %7 = icmp eq ptr %4, %6
  br i1 %7, label %48, label %.preheader52

.preheader52:                                     ; preds = %2
  %8 = getelementptr inbounds nuw i8, ptr %0, i64 56
  %9 = load i32, ptr %8, align 8, !tbaa !16
  %10 = icmp sgt i32 %9, 0
  br i1 %10, label %.lr.ph, label %.preheader

.lr.ph:                                           ; preds = %.preheader52
  %11 = getelementptr inbounds nuw i8, ptr %0, i64 64
  %12 = getelementptr inbounds nuw i8, ptr %0, i64 144
  br label %14

.preheader:                                       ; preds = %14, %.preheader52
  %13 = getelementptr inbounds nuw i8, ptr %0, i64 280
  br label %32

14:                                               ; preds = %.lr.ph, %14
  %indvars.iv = phi i64 [ 0, %.lr.ph ], [ %indvars.iv.next, %14 ]
  %15 = getelementptr inbounds nuw [10 x double], ptr %11, i64 0, i64 %indvars.iv
  %16 = load double, ptr %15, align 8, !tbaa !37
  %17 = fptrunc reassoc nsz arcp contract afn double %16 to float
  %18 = tail call reassoc nsz arcp contract afn float %4(ptr noundef nonnull %0, float noundef %17, i32 noundef 2) #14
  %19 = tail call reassoc nsz arcp contract afn float %6(ptr noundef nonnull %0, float noundef %18, i32 noundef 1) #14
  %20 = fpext reassoc nsz arcp contract afn float %19 to double
  store double %20, ptr %15, align 8, !tbaa !37
  %21 = getelementptr inbounds nuw [10 x double], ptr %12, i64 0, i64 %indvars.iv
  %22 = load double, ptr %21, align 8, !tbaa !37
  %23 = fptrunc reassoc nsz arcp contract afn double %22 to float
  %24 = tail call reassoc nsz arcp contract afn float %4(ptr noundef nonnull %0, float noundef %23, i32 noundef 2) #14
  %25 = tail call reassoc nsz arcp contract afn float %6(ptr noundef nonnull %0, float noundef %24, i32 noundef 1) #14
  %26 = fpext reassoc nsz arcp contract afn float %25 to double
  store double %26, ptr %21, align 8, !tbaa !37
  %indvars.iv.next = add nuw nsw i64 %indvars.iv, 1
  %27 = load i32, ptr %8, align 8, !tbaa !16
  %28 = sext i32 %27 to i64
  %29 = icmp slt i64 %indvars.iv.next, %28
  br i1 %29, label %14, label %.preheader

30:                                               ; preds = %32
  %31 = getelementptr inbounds nuw i8, ptr %0, i64 40
  %.055 = load ptr, ptr %31, align 8, !tbaa !89
  %.not56 = icmp eq ptr %.055, null
  br i1 %.not56, label %._crit_edge, label %.lr.ph58

32:                                               ; preds = %.preheader, %32
  %indvars.iv60 = phi i64 [ 0, %.preheader ], [ %indvars.iv.next61, %32 ]
  %33 = getelementptr inbounds nuw [3 x double], ptr %13, i64 0, i64 %indvars.iv60
  %34 = load double, ptr %33, align 8, !tbaa !37
  %35 = fptrunc reassoc nsz arcp contract afn double %34 to float
  %36 = tail call reassoc nsz arcp contract afn float %4(ptr noundef nonnull %0, float noundef %35, i32 noundef 2) #14
  %37 = tail call reassoc nsz arcp contract afn float %6(ptr noundef nonnull %0, float noundef %36, i32 noundef 1) #14
  %38 = fpext reassoc nsz arcp contract afn float %37 to double
  store double %38, ptr %33, align 8, !tbaa !37
  %indvars.iv.next61 = add nuw nsw i64 %indvars.iv60, 1
  %exitcond.not = icmp eq i64 %indvars.iv.next61, 3
  br i1 %exitcond.not, label %30, label %32

._crit_edge:                                      ; preds = %.lr.ph58, %30
  store ptr %6, ptr %3, align 8, !tbaa !34
  %39 = tail call i64 @gtk_widget_get_type() #15
  %40 = tail call ptr @g_type_check_instance_cast(ptr noundef nonnull %0, i64 noundef %39) #14
  tail call void @gtk_widget_queue_draw(ptr noundef %40) #14
  br label %48

.lr.ph58:                                         ; preds = %30, %.lr.ph58
  %.057 = phi ptr [ %.0, %.lr.ph58 ], [ %.055, %30 ]
  %41 = load ptr, ptr %.057, align 8, !tbaa !46
  %42 = load double, ptr %41, align 8, !tbaa !12
  %43 = fptrunc reassoc nsz arcp contract afn double %42 to float
  %44 = tail call reassoc nsz arcp contract afn float %4(ptr noundef nonnull %0, float noundef %43, i32 noundef 2) #14
  %45 = tail call reassoc nsz arcp contract afn float %6(ptr noundef nonnull %0, float noundef %44, i32 noundef 1) #14
  %46 = fpext reassoc nsz arcp contract afn float %45 to double
  store double %46, ptr %41, align 8, !tbaa !12
  %47 = getelementptr inbounds nuw i8, ptr %.057, i64 8
  %.0 = load ptr, ptr %47, align 8, !tbaa !89
  %.not = icmp eq ptr %.0, null
  br i1 %.not, label %._crit_edge, label %.lr.ph58

48:                                               ; preds = %2, %._crit_edge
  ret void
}